target datalayout = "e-m:e-p270:32:32-p271:32:32-p272:64:64-i64:64-i128:128-f80:128-n8:16:32:64-S128"
target triple = "x86_64-unknown-linux-gnu"

; Function Attrs: mustprogress uwtable
define hidden noundef i32 @_ZN9SampleICC5Read8ERSiPvi(ptr noundef nonnull align 8 dereferenceable(16) %istream, ptr noundef %pBuf, i32 noundef %num) #5 {
entry:
  %retval = alloca i32, align 4
  %istream.addr = alloca ptr, align 8
  %pBuf.addr = alloca ptr, align 8
  %num.addr = alloca i32, align 4
  %pBufChar = alloca ptr, align 8
  store ptr %istream, ptr %istream.addr, align 8
  store ptr %pBuf, ptr %pBuf.addr, align 8
  store i32 %num, ptr %num.addr, align 4
  %0 = load ptr, ptr %istream.addr, align 8
  %vtable = load ptr, ptr %0, align 8
  %vbase.offset.ptr = getelementptr i8, ptr %vtable, i64 -24
  %vbase.offset = load i64, ptr %vbase.offset.ptr, align 8
  %add.ptr = getelementptr inbounds i8, ptr %0, i64 %vbase.offset
  %call = call noundef zeroext i1 @_ZNKSt9basic_iosIcSt11char_traitsIcEE4goodEv(ptr noundef nonnull align 8 dereferenceable(264) %add.ptr)
  br i1 %call, label %if.end, label %if.then

if.then:                                          ; preds = %entry
  store i32 0, ptr %retval, align 4
  br label %return

if.end:                                           ; preds = %entry
  %1 = load ptr, ptr %pBuf.addr, align 8
  store ptr %1, ptr %pBufChar, align 8
  %2 = load ptr, ptr %istream.addr, align 8
  %3 = load ptr, ptr %pBufChar, align 8
  %4 = load i32, ptr %num.addr, align 4
  %conv = sext i32 %4 to i64
  %call1 = call noundef nonnull align 8 dereferenceable(16) ptr @_ZNSi4readEPcl(ptr noundef nonnull align 8 dereferenceable(16) %2, ptr noundef %3, i64 noundef %conv)
  %5 = load ptr, ptr %istream.addr, align 8
  %vtable2 = load ptr, ptr %5, align 8
  %vbase.offset.ptr3 = getelementptr i8, ptr %vtable2, i64 -24
  %vbase.offset4 = load i64, ptr %vbase.offset.ptr3, align 8
  %add.ptr5 = getelementptr inbounds i8, ptr %5, i64 %vbase.offset4
  %call6 = call noundef zeroext i1 @_ZNKSt9basic_iosIcSt11char_traitsIcEE4goodEv(ptr noundef nonnull align 8 dereferenceable(264) %add.ptr5)
  br i1 %call6, label %if.end8, label %if.then7

if.then7:                                         ; preds = %if.end
  store i32 0, ptr %retval, align 4
  br label %return

if.end8:                                          ; preds = %if.end
  %6 = load i32, ptr %num.addr, align 4
  store i32 %6, ptr %retval, align 4
  br label %return

return:                                           ; preds = %if.end8, %if.then7, %if.then
  %7 = load i32, ptr %retval, align 4
  ret i32 %7
}