; Function Attrs: mustprogress uwtable
define hidden noundef i32 @_ZN9SampleICC5Read8ERSiPvi(ptr noundef nonnull align 8 dereferenceable(16) %istream, ptr noundef %pBuf, i32 noundef %num) local_unnamed_addr #6 {
entry:
  %vtable = load ptr, ptr %istream, align 8
  %vbase.offset.ptr = getelementptr i8, ptr %vtable, i64 -24
  %vbase.offset = load i64, ptr %vbase.offset.ptr, align 8
  %add.ptr = getelementptr inbounds i8, ptr %istream, i64 %vbase.offset
  %call = tail call noundef zeroext i1 @_ZNKSt9basic_iosIcSt11char_traitsIcEE4goodEv(ptr noundef nonnull align 8 dereferenceable(264) %add.ptr)
  br i1 %call, label %if.end, label %return

if.end:                                           ; preds = %entry
  %conv = sext i32 %num to i64
  %call1 = tail call noundef nonnull align 8 dereferenceable(16) ptr @_ZNSi4readEPcl(ptr noundef nonnull align 8 dereferenceable(16) %istream, ptr noundef %pBuf, i64 noundef %conv)
  %vtable2 = load ptr, ptr %istream, align 8
  %vbase.offset.ptr3 = getelementptr i8, ptr %vtable2, i64 -24
  %vbase.offset4 = load i64, ptr %vbase.offset.ptr3, align 8
  %add.ptr5 = getelementptr inbounds i8, ptr %istream, i64 %vbase.offset4
  %call6 = tail call noundef zeroext i1 @_ZNKSt9basic_iosIcSt11char_traitsIcEE4goodEv(ptr noundef nonnull align 8 dereferenceable(264) %add.ptr5)
  %num. = select i1 %call6, i32 %num, i32 0
  br label %return

return:                                           ; preds = %if.end, %entry
  %retval.0 = phi i32 [ 0, %entry ], [ %num., %if.end ]
  ret i32 %retval.0
}